; Function Attrs: nounwind uwtable
define range(i32 0, 2) i32 @ossl_quic_channel_on_new_conn(ptr noundef %0, ptr noundef readonly captures(none) %1, ptr noundef readonly captures(none) %2, ptr noundef readonly captures(none) %3) local_unnamed_addr #0 {
  %5 = getelementptr inbounds nuw i8, ptr %0, i64 1568
  %6 = load i64, ptr %5, align 8
  %7 = and i64 %6, 33554439
  %8 = icmp eq i64 %7, 33554432
  br i1 %8, label %9, label %16, !prof !245

9:                                                ; preds = %4
  %10 = getelementptr inbounds nuw i8, ptr %0, i64 56
  %11 = load ptr, ptr %10, align 8, !tbaa !44
  %12 = getelementptr inbounds nuw i8, ptr %0, i64 1228
  %13 = tail call i32 @ossl_quic_lcidm_generate_initial(ptr noundef %11, ptr noundef nonnull %0, ptr noundef nonnull %12) #15
  %.not = icmp eq i32 %13, 0
  br i1 %.not, label %16, label %14

14:                                               ; preds = %9
  %15 = tail call fastcc i32 @ch_on_new_conn_common(ptr noundef nonnull %0, ptr noundef %1, ptr noundef %2, ptr noundef %3, ptr noundef null)
  br label %16

16:                                               ; preds = %9, %4, %14
  %.0 = phi i32 [ %15, %14 ], [ 0, %4 ], [ 0, %9 ]
  ret i32 %.0
}